; Function Attrs: uwtable
define noundef i32 @_ZThn88_N27colvarbias_restraint_linear20change_configurationERKNSt7__cxx1112basic_stringIcSt11char_traitsIcESaIcEEE(ptr noundef %0, ptr noundef nonnull align 8 dereferenceable(32) %1) unnamed_addr #3 align 2 {
  %3 = getelementptr inbounds i8, ptr %0, i64 -88
  %4 = load ptr, ptr %3, align 8
  %5 = getelementptr i8, ptr %4, i64 -176
  %6 = load i64, ptr %5, align 8
  %7 = getelementptr inbounds i8, ptr %3, i64 %6
  %8 = load ptr, ptr %7, align 8
  %9 = getelementptr i8, ptr %8, i64 -32
  %10 = load i64, ptr %9, align 8
  %11 = getelementptr inbounds i8, ptr %7, i64 %10
  %12 = getelementptr inbounds i8, ptr %7, i64 8
  %13 = tail call noundef zeroext i1 @_ZN11colvarparse10get_keyvalERKNSt7__cxx1112basic_stringIcSt11char_traitsIcESaIcEEEPKcRdRKdNS_10Parse_ModeE(ptr noundef nonnull align 8 dereferenceable(320) %11, ptr noundef nonnull align 8 dereferenceable(32) %1, ptr noundef nonnull @.str.15, ptr noundef nonnull align 8 dereferenceable(8) %12, ptr noundef nonnull align 8 dereferenceable(8) %12, i32 noundef 131078)
  ret i32 0
}